target datalayout = "e-m:e-p270:32:32-p271:32:32-p272:64:64-i64:64-i128:128-f80:128-n8:16:32:64-S128"
target triple = "x86_64-pc-linux-gnu"

@MyLatch = external global ptr, align 8
@pending_pm_shutdown_request = internal global i32 0, align 4
@pending_pm_immediate_shutdown_request = internal global i32 0, align 4
@pending_pm_fast_shutdown_request = internal global i32 0, align 4

; Function Attrs: nounwind uwtable
define internal void @handle_pm_shutdown_request_signal(i32 noundef %0) #2 {
  %2 = alloca i32, align 4
  store i32 %0, ptr %2, align 4
  %3 = load i32, ptr %2, align 4
  switch i32 %3, label %7 [
    i32 15, label %4
    i32 2, label %5
    i32 3, label %6
  ]

4:                                                ; preds = %1
  store volatile i32 1, ptr @pending_pm_shutdown_request, align 4
  br label %7

5:                                                ; preds = %1
  store volatile i32 1, ptr @pending_pm_fast_shutdown_request, align 4
  store volatile i32 1, ptr @pending_pm_shutdown_request, align 4
  br label %7

6:                                                ; preds = %1
  store volatile i32 1, ptr @pending_pm_immediate_shutdown_request, align 4
  store volatile i32 1, ptr @pending_pm_shutdown_request, align 4
  br label %7

7:                                                ; preds = %1, %6, %5, %4
  %8 = load ptr, ptr @MyLatch, align 8
  call void @SetLatch(ptr noundef %8)
  ret void
}