; Function Attrs: nounwind uwtable
define internal void @handle_pm_shutdown_request_signal(i32 noundef %0) #2 {
  switch i32 %0, label %3 [
    i32 15, label %.sink.split
    i32 2, label %.sink.split.sink.split
    i32 3, label %2
  ]

2:                                                ; preds = %1
  br label %.sink.split.sink.split

.sink.split.sink.split:                           ; preds = %1, %2
  %pending_pm_fast_shutdown_request.sink = phi ptr [ @pending_pm_immediate_shutdown_request, %2 ], [ @pending_pm_fast_shutdown_request, %1 ]
  store volatile i32 1, ptr %pending_pm_fast_shutdown_request.sink, align 4
  br label %.sink.split

.sink.split:                                      ; preds = %.sink.split.sink.split, %1
  store volatile i32 1, ptr @pending_pm_shutdown_request, align 4
  br label %3

3:                                                ; preds = %.sink.split, %1
  %4 = load ptr, ptr @MyLatch, align 8
  tail call void @SetLatch(ptr noundef %4) #18
  ret void
}